target datalayout = "e-m:e-p270:32:32-p271:32:32-p272:64:64-i64:64-i128:128-f80:128-n8:16:32:64-S128"
target triple = "x86_64-pc-linux-gnu"

%struct.nstime_t = type { i64, i32 }
%struct._capture_file = type { ptr, i32, ptr, ptr, i8, i8, i8, i64, i16, i32, i32, i32, ptr, i32, i64, i32, i32, i32, i32, i8, i32, %struct.nstime_t, i32, ptr, ptr, ptr, i8, i8, i32, ptr, i8, i8, i8, i8, i8, i32, i32, i8, ptr, i32, i32, i8, %struct.packet_provider_data, i32, i32, %struct.epan_column_info, ptr, ptr, ptr, %struct.wtap_rec, %struct.Buffer, ptr, i64, i32 }
%struct.packet_provider_data = type { ptr, ptr, ptr, ptr, ptr, ptr }
%struct.epan_column_info = type { ptr, i32, ptr, ptr, ptr, %struct.col_expr_t, i8, ptr }
%struct.col_expr_t = type { ptr, ptr }
%struct.wtap_rec = type { i32, i32, i32, %struct.nstime_t, i32, %struct.nstime_t, i8, %union.anon, ptr, i8, %struct.Buffer, %struct.Buffer }
%union.anon = type { %struct.wtap_packet_header }
%struct.wtap_packet_header = type { i32, i32, i32, i32, %union.wtap_pseudo_header }
%union.wtap_pseudo_header = type { %struct.erf_mc_phdr }
%struct.erf_mc_phdr = type { %struct.erf_phdr, [16 x %struct.erf_ehdr], %union.anon.30 }
%struct.erf_phdr = type { i64, i8, i8, i16, i16, i16 }
%struct.erf_ehdr = type { i64 }
%union.anon.30 = type { i32 }
%struct.Buffer = type { ptr, i64, i64, i64 }
%struct.col_item_t = type { i32, ptr, ptr, ptr, i32, ptr, ptr, ptr, ptr, i32, i8, i32 }
%struct.col_custom_t = type { ptr, ptr, i32 }
%struct._header_field_info = type { ptr, ptr, i32, i32, ptr, i64, ptr, i32, i32, i32, i32, ptr }

@_ZN15PacketListModel14sort_cap_file_E = global ptr null, align 8

; Function Attrs: mustprogress null_pointer_is_valid sspstrong uwtable
define noundef zeroext i1 @_ZN15PacketListModel15isNumericColumnEi(ptr noundef align 8 dereferenceable_or_null(156) %0, i32 noundef %1) #0 align 2 {
  %3 = alloca i1, align 1
  %4 = alloca ptr, align 8
  %5 = alloca i32, align 4
  %6 = alloca i32, align 4
  %7 = alloca ptr, align 8
  %8 = alloca i32, align 4
  %9 = alloca i32, align 4
  %10 = alloca i32, align 4
  %11 = alloca ptr, align 8
  store ptr %0, ptr %4, align 8
  store i32 %1, ptr %5, align 4
  %12 = load i32, ptr %5, align 4
  %13 = icmp slt i32 %12, 0
  br i1 %13, label %14, label %15

14:                                               ; preds = %2
  store i1 false, ptr %3, align 1
  br label %296

15:                                               ; preds = %2
  %16 = load ptr, ptr @_ZN15PacketListModel14sort_cap_file_E, align 8
  %17 = getelementptr inbounds nuw %struct._capture_file, ptr %16, i32 0, i32 45
  %18 = getelementptr inbounds nuw %struct.epan_column_info, ptr %17, i32 0, i32 2
  %19 = load ptr, ptr %18, align 8
  %20 = load i32, ptr %5, align 4
  %21 = sext i32 %20 to i64
  %22 = getelementptr %struct.col_item_t, ptr %19, i64 %21
  %23 = getelementptr inbounds nuw %struct.col_item_t, ptr %22, i32 0, i32 0
  %24 = load i32, ptr %23, align 8
  switch i32 %24, label %27 [
    i32 3, label %25
    i32 5, label %25
    i32 6, label %25
    i32 10, label %25
    i32 15, label %25
    i32 22, label %25
    i32 23, label %25
    i32 32, label %25
    i32 33, label %25
    i32 34, label %25
    i32 42, label %25
    i32 9, label %26
    i32 12, label %26
    i32 38, label %26
    i32 41, label %26
    i32 4, label %28
  ]

25:                                               ; preds = %15, %15, %15, %15, %15, %15, %15, %15, %15, %15, %15
  store i1 true, ptr %3, align 1
  br label %296

26:                                               ; preds = %15, %15, %15, %15
  store i1 true, ptr %3, align 1
  br label %296

27:                                               ; preds = %15
  store i1 false, ptr %3, align 1
  br label %296

28:                                               ; preds = %15
  call void @llvm.lifetime.start.p0(i64 4, ptr %6) #24
  %29 = load ptr, ptr @_ZN15PacketListModel14sort_cap_file_E, align 8
  %30 = getelementptr inbounds nuw %struct._capture_file, ptr %29, i32 0, i32 45
  %31 = getelementptr inbounds nuw %struct.epan_column_info, ptr %30, i32 0, i32 2
  %32 = load ptr, ptr %31, align 8
  %33 = load i32, ptr %5, align 4
  %34 = sext i32 %33 to i64
  %35 = getelementptr %struct.col_item_t, ptr %32, i64 %34
  %36 = getelementptr inbounds nuw %struct.col_item_t, ptr %35, i32 0, i32 5
  %37 = load ptr, ptr %36, align 8
  %38 = call i32 @g_slist_length(ptr noundef %37)
  store i32 %38, ptr %6, align 4
  call void @llvm.lifetime.start.p0(i64 8, ptr %7) #24
  call void @llvm.lifetime.start.p0(i64 4, ptr %8) #24
  store i32 0, ptr %8, align 4
  br label %39

39:                                               ; preds = %289, %28
  %40 = load i32, ptr %8, align 4
  %41 = load i32, ptr %6, align 4
  %42 = icmp ult i32 %40, %41
  br i1 %42, label %44, label %43

43:                                               ; preds = %39
  store i32 3, ptr %9, align 4
  br label %292

44:                                               ; preds = %39
  %45 = load ptr, ptr @_ZN15PacketListModel14sort_cap_file_E, align 8
  %46 = getelementptr inbounds nuw %struct._capture_file, ptr %45, i32 0, i32 45
  %47 = getelementptr inbounds nuw %struct.epan_column_info, ptr %46, i32 0, i32 2
  %48 = load ptr, ptr %47, align 8
  %49 = load i32, ptr %5, align 4
  %50 = sext i32 %49 to i64
  %51 = getelementptr %struct.col_item_t, ptr %48, i64 %50
  %52 = getelementptr inbounds nuw %struct.col_item_t, ptr %51, i32 0, i32 5
  %53 = load ptr, ptr %52, align 8
  %54 = load i32, ptr %8, align 4
  %55 = call ptr @g_slist_nth_data(ptr noundef %53, i32 noundef %54)
  store ptr %55, ptr %7, align 8
  %56 = load ptr, ptr %7, align 8
  %57 = getelementptr inbounds nuw %struct.col_custom_t, ptr %56, i32 0, i32 2
  %58 = load i32, ptr %57, align 8
  %59 = icmp eq i32 %58, 0
  br i1 %59, label %60, label %133

60:                                               ; preds = %44
  call void @llvm.lifetime.start.p0(i64 4, ptr %10) #24
  %61 = load ptr, ptr %7, align 8
  %62 = getelementptr inbounds nuw %struct.col_custom_t, ptr %61, i32 0, i32 1
  %63 = load ptr, ptr %62, align 8
  %64 = call i32 @dfilter_get_return_type(ptr noundef %63)
  store i32 %64, ptr %10, align 4
  %65 = load i32, ptr %10, align 4
  %66 = icmp eq i32 %65, 12
  br i1 %66, label %130, label %67

67:                                               ; preds = %60
  %68 = load i32, ptr %10, align 4
  %69 = icmp eq i32 %68, 13
  br i1 %69, label %130, label %70

70:                                               ; preds = %67
  %71 = load i32, ptr %10, align 4
  %72 = icmp eq i32 %71, 14
  br i1 %72, label %130, label %73

73:                                               ; preds = %70
  %74 = load i32, ptr %10, align 4
  %75 = icmp eq i32 %74, 15
  br i1 %75, label %130, label %76

76:                                               ; preds = %73
  %77 = load i32, ptr %10, align 4
  %78 = icmp eq i32 %77, 16
  br i1 %78, label %130, label %79

79:                                               ; preds = %76
  %80 = load i32, ptr %10, align 4
  %81 = icmp eq i32 %80, 17
  br i1 %81, label %130, label %82

82:                                               ; preds = %79
  %83 = load i32, ptr %10, align 4
  %84 = icmp eq i32 %83, 18
  br i1 %84, label %130, label %85

85:                                               ; preds = %82
  %86 = load i32, ptr %10, align 4
  %87 = icmp eq i32 %86, 19
  br i1 %87, label %130, label %88

88:                                               ; preds = %85
  %89 = load i32, ptr %10, align 4
  %90 = icmp eq i32 %89, 3
  br i1 %90, label %130, label %91

91:                                               ; preds = %88
  %92 = load i32, ptr %10, align 4
  %93 = icmp eq i32 %92, 4
  br i1 %93, label %130, label %94

94:                                               ; preds = %91
  %95 = load i32, ptr %10, align 4
  %96 = icmp eq i32 %95, 5
  br i1 %96, label %130, label %97

97:                                               ; preds = %94
  %98 = load i32, ptr %10, align 4
  %99 = icmp eq i32 %98, 6
  br i1 %99, label %130, label %100

100:                                              ; preds = %97
  %101 = load i32, ptr %10, align 4
  %102 = icmp eq i32 %101, 7
  br i1 %102, label %130, label %103

103:                                              ; preds = %100
  %104 = load i32, ptr %10, align 4
  %105 = icmp eq i32 %104, 35
  br i1 %105, label %130, label %106

106:                                              ; preds = %103
  %107 = load i32, ptr %10, align 4
  %108 = icmp eq i32 %107, 8
  br i1 %108, label %130, label %109

109:                                              ; preds = %106
  %110 = load i32, ptr %10, align 4
  %111 = icmp eq i32 %110, 9
  br i1 %111, label %130, label %112

112:                                              ; preds = %109
  %113 = load i32, ptr %10, align 4
  %114 = icmp eq i32 %113, 10
  br i1 %114, label %130, label %115

115:                                              ; preds = %112
  %116 = load i32, ptr %10, align 4
  %117 = icmp eq i32 %116, 11
  br i1 %117, label %130, label %118

118:                                              ; preds = %115
  %119 = load i32, ptr %10, align 4
  %120 = icmp eq i32 %119, 22
  br i1 %120, label %130, label %121

121:                                              ; preds = %118
  %122 = load i32, ptr %10, align 4
  %123 = icmp eq i32 %122, 23
  br i1 %123, label %130, label %124

124:                                              ; preds = %121
  %125 = load i32, ptr %10, align 4
  %126 = icmp eq i32 %125, 2
  br i1 %126, label %130, label %127

127:                                              ; preds = %124
  %128 = load i32, ptr %10, align 4
  %129 = icmp eq i32 %128, 25
  br i1 %129, label %130, label %131

130:                                              ; preds = %127, %124, %121, %118, %115, %112, %109, %106, %103, %100, %97, %94, %91, %88, %85, %82, %79, %76, %73, %70, %67, %60
  store i1 true, ptr %3, align 1
  store i32 1, ptr %9, align 4
  br label %132

131:                                              ; preds = %127
  store i1 false, ptr %3, align 1
  store i32 1, ptr %9, align 4
  br label %132

132:                                              ; preds = %131, %130
  call void @llvm.lifetime.end.p0(i64 4, ptr %10) #24
  br label %292

133:                                              ; preds = %44
  call void @llvm.lifetime.start.p0(i64 8, ptr %11) #24
  %134 = load ptr, ptr %7, align 8
  %135 = getelementptr inbounds nuw %struct.col_custom_t, ptr %134, i32 0, i32 2
  %136 = load i32, ptr %135, align 8
  %137 = call ptr @proto_registrar_get_nth(i32 noundef %136)
  store ptr %137, ptr %11, align 8
  %138 = load ptr, ptr %11, align 8
  %139 = icmp ne ptr %138, null
  br i1 %139, label %140, label %284

140:                                              ; preds = %133
  %141 = load ptr, ptr %11, align 8
  %142 = getelementptr inbounds nuw %struct._header_field_info, ptr %141, i32 0, i32 4
  %143 = load ptr, ptr %142, align 8
  %144 = icmp ne ptr %143, null
  br i1 %144, label %145, label %151

145:                                              ; preds = %140
  %146 = load ptr, ptr %11, align 8
  %147 = getelementptr inbounds nuw %struct._header_field_info, ptr %146, i32 0, i32 3
  %148 = load i32, ptr %147, align 4
  %149 = and i32 %148, 4096
  %150 = icmp ne i32 %149, 0
  br i1 %150, label %151, label %284

151:                                              ; preds = %145, %140
  %152 = load ptr, ptr %11, align 8
  %153 = getelementptr inbounds nuw %struct._header_field_info, ptr %152, i32 0, i32 2
  %154 = load i32, ptr %153, align 8
  %155 = icmp eq i32 %154, 12
  br i1 %155, label %241, label %156

156:                                              ; preds = %151
  %157 = load ptr, ptr %11, align 8
  %158 = getelementptr inbounds nuw %struct._header_field_info, ptr %157, i32 0, i32 2
  %159 = load i32, ptr %158, align 8
  %160 = icmp eq i32 %159, 13
  br i1 %160, label %241, label %161

161:                                              ; preds = %156
  %162 = load ptr, ptr %11, align 8
  %163 = getelementptr inbounds nuw %struct._header_field_info, ptr %162, i32 0, i32 2
  %164 = load i32, ptr %163, align 8
  %165 = icmp eq i32 %164, 14
  br i1 %165, label %241, label %166

166:                                              ; preds = %161
  %167 = load ptr, ptr %11, align 8
  %168 = getelementptr inbounds nuw %struct._header_field_info, ptr %167, i32 0, i32 2
  %169 = load i32, ptr %168, align 8
  %170 = icmp eq i32 %169, 15
  br i1 %170, label %241, label %171

171:                                              ; preds = %166
  %172 = load ptr, ptr %11, align 8
  %173 = getelementptr inbounds nuw %struct._header_field_info, ptr %172, i32 0, i32 2
  %174 = load i32, ptr %173, align 8
  %175 = icmp eq i32 %174, 16
  br i1 %175, label %241, label %176

176:                                              ; preds = %171
  %177 = load ptr, ptr %11, align 8
  %178 = getelementptr inbounds nuw %struct._header_field_info, ptr %177, i32 0, i32 2
  %179 = load i32, ptr %178, align 8
  %180 = icmp eq i32 %179, 17
  br i1 %180, label %241, label %181

181:                                              ; preds = %176
  %182 = load ptr, ptr %11, align 8
  %183 = getelementptr inbounds nuw %struct._header_field_info, ptr %182, i32 0, i32 2
  %184 = load i32, ptr %183, align 8
  %185 = icmp eq i32 %184, 18
  br i1 %185, label %241, label %186

186:                                              ; preds = %181
  %187 = load ptr, ptr %11, align 8
  %188 = getelementptr inbounds nuw %struct._header_field_info, ptr %187, i32 0, i32 2
  %189 = load i32, ptr %188, align 8
  %190 = icmp eq i32 %189, 19
  br i1 %190, label %241, label %191

191:                                              ; preds = %186
  %192 = load ptr, ptr %11, align 8
  %193 = getelementptr inbounds nuw %struct._header_field_info, ptr %192, i32 0, i32 2
  %194 = load i32, ptr %193, align 8
  %195 = icmp eq i32 %194, 3
  br i1 %195, label %241, label %196

196:                                              ; preds = %191
  %197 = load ptr, ptr %11, align 8
  %198 = getelementptr inbounds nuw %struct._header_field_info, ptr %197, i32 0, i32 2
  %199 = load i32, ptr %198, align 8
  %200 = icmp eq i32 %199, 4
  br i1 %200, label %241, label %201

201:                                              ; preds = %196
  %202 = load ptr, ptr %11, align 8
  %203 = getelementptr inbounds nuw %struct._header_field_info, ptr %202, i32 0, i32 2
  %204 = load i32, ptr %203, align 8
  %205 = icmp eq i32 %204, 5
  br i1 %205, label %241, label %206

206:                                              ; preds = %201
  %207 = load ptr, ptr %11, align 8
  %208 = getelementptr inbounds nuw %struct._header_field_info, ptr %207, i32 0, i32 2
  %209 = load i32, ptr %208, align 8
  %210 = icmp eq i32 %209, 6
  br i1 %210, label %241, label %211

211:                                              ; preds = %206
  %212 = load ptr, ptr %11, align 8
  %213 = getelementptr inbounds nuw %struct._header_field_info, ptr %212, i32 0, i32 2
  %214 = load i32, ptr %213, align 8
  %215 = icmp eq i32 %214, 7
  br i1 %215, label %241, label %216

216:                                              ; preds = %211
  %217 = load ptr, ptr %11, align 8
  %218 = getelementptr inbounds nuw %struct._header_field_info, ptr %217, i32 0, i32 2
  %219 = load i32, ptr %218, align 8
  %220 = icmp eq i32 %219, 35
  br i1 %220, label %241, label %221

221:                                              ; preds = %216
  %222 = load ptr, ptr %11, align 8
  %223 = getelementptr inbounds nuw %struct._header_field_info, ptr %222, i32 0, i32 2
  %224 = load i32, ptr %223, align 8
  %225 = icmp eq i32 %224, 8
  br i1 %225, label %241, label %226

226:                                              ; preds = %221
  %227 = load ptr, ptr %11, align 8
  %228 = getelementptr inbounds nuw %struct._header_field_info, ptr %227, i32 0, i32 2
  %229 = load i32, ptr %228, align 8
  %230 = icmp eq i32 %229, 9
  br i1 %230, label %241, label %231

231:                                              ; preds = %226
  %232 = load ptr, ptr %11, align 8
  %233 = getelementptr inbounds nuw %struct._header_field_info, ptr %232, i32 0, i32 2
  %234 = load i32, ptr %233, align 8
  %235 = icmp eq i32 %234, 10
  br i1 %235, label %241, label %236

236:                                              ; preds = %231
  %237 = load ptr, ptr %11, align 8
  %238 = getelementptr inbounds nuw %struct._header_field_info, ptr %237, i32 0, i32 2
  %239 = load i32, ptr %238, align 8
  %240 = icmp eq i32 %239, 11
  br i1 %240, label %241, label %259

241:                                              ; preds = %236, %231, %226, %221, %216, %211, %206, %201, %196, %191, %186, %181, %176, %171, %166, %161, %156, %151
  %242 = load ptr, ptr %11, align 8
  %243 = getelementptr inbounds nuw %struct._header_field_info, ptr %242, i32 0, i32 3
  %244 = load i32, ptr %243, align 4
  %245 = and i32 %244, 255
  %246 = icmp eq i32 %245, 1
  br i1 %246, label %285, label %247

247:                                              ; preds = %241
  %248 = load ptr, ptr %11, align 8
  %249 = getelementptr inbounds nuw %struct._header_field_info, ptr %248, i32 0, i32 3
  %250 = load i32, ptr %249, align 4
  %251 = and i32 %250, 255
  %252 = icmp eq i32 %251, 3
  br i1 %252, label %285, label %253

253:                                              ; preds = %247
  %254 = load ptr, ptr %11, align 8
  %255 = getelementptr inbounds nuw %struct._header_field_info, ptr %254, i32 0, i32 3
  %256 = load i32, ptr %255, align 4
  %257 = and i32 %256, 255
  %258 = icmp eq i32 %257, 4
  br i1 %258, label %285, label %259

259:                                              ; preds = %253, %236
  %260 = load ptr, ptr %11, align 8
  %261 = getelementptr inbounds nuw %struct._header_field_info, ptr %260, i32 0, i32 2
  %262 = load i32, ptr %261, align 8
  %263 = icmp eq i32 %262, 23
  br i1 %263, label %285, label %264

264:                                              ; preds = %259
  %265 = load ptr, ptr %11, align 8
  %266 = getelementptr inbounds nuw %struct._header_field_info, ptr %265, i32 0, i32 2
  %267 = load i32, ptr %266, align 8
  %268 = icmp eq i32 %267, 22
  br i1 %268, label %285, label %269

269:                                              ; preds = %264
  %270 = load ptr, ptr %11, align 8
  %271 = getelementptr inbounds nuw %struct._header_field_info, ptr %270, i32 0, i32 2
  %272 = load i32, ptr %271, align 8
  %273 = icmp eq i32 %272, 2
  br i1 %273, label %285, label %274

274:                                              ; preds = %269
  %275 = load ptr, ptr %11, align 8
  %276 = getelementptr inbounds nuw %struct._header_field_info, ptr %275, i32 0, i32 2
  %277 = load i32, ptr %276, align 8
  %278 = icmp eq i32 %277, 35
  br i1 %278, label %285, label %279

279:                                              ; preds = %274
  %280 = load ptr, ptr %11, align 8
  %281 = getelementptr inbounds nuw %struct._header_field_info, ptr %280, i32 0, i32 2
  %282 = load i32, ptr %281, align 8
  %283 = icmp eq i32 %282, 25
  br i1 %283, label %285, label %284

284:                                              ; preds = %279, %145, %133
  store i1 false, ptr %3, align 1
  store i32 1, ptr %9, align 4
  br label %286

285:                                              ; preds = %279, %274, %269, %264, %259, %253, %247, %241
  store i32 0, ptr %9, align 4
  br label %286

286:                                              ; preds = %285, %284
  call void @llvm.lifetime.end.p0(i64 8, ptr %11) #24
  %287 = load i32, ptr %9, align 4
  switch i32 %287, label %292 [
    i32 0, label %288
  ]

288:                                              ; preds = %286
  br label %289

289:                                              ; preds = %288
  %290 = load i32, ptr %8, align 4
  %291 = add i32 %290, 1
  store i32 %291, ptr %8, align 4
  br label %39, !llvm.loop !19

292:                                              ; preds = %286, %132, %43
  call void @llvm.lifetime.end.p0(i64 4, ptr %8) #24
  %293 = load i32, ptr %9, align 4
  switch i32 %293, label %295 [
    i32 3, label %294
  ]

294:                                              ; preds = %292
  store i1 true, ptr %3, align 1
  store i32 1, ptr %9, align 4
  br label %295

295:                                              ; preds = %294, %292
  call void @llvm.lifetime.end.p0(i64 8, ptr %7) #24
  call void @llvm.lifetime.end.p0(i64 4, ptr %6) #24
  br label %296

296:                                              ; preds = %295, %27, %26, %25, %14
  %297 = load i1, ptr %3, align 1
  ret i1 %297
}