; Function Attrs: mustprogress null_pointer_is_valid sspstrong uwtable
define noundef zeroext i1 @_ZN15PacketListModel15isNumericColumnEi(ptr readnone align 8 captures(none) %0, i32 noundef %1) local_unnamed_addr #0 align 2 {
  %3 = icmp slt i32 %1, 0
  br i1 %3, label %.loopexit, label %4

4:                                                ; preds = %2
  %5 = load ptr, ptr @_ZN15PacketListModel14sort_cap_file_E, align 8
  %6 = getelementptr inbounds nuw i8, ptr %5, i64 296
  %7 = load ptr, ptr %6, align 8
  %8 = zext nneg i32 %1 to i64
  %9 = getelementptr %struct.col_item_t, ptr %7, i64 %8
  %10 = load i32, ptr %9, align 8
  switch i32 %10, label %11 [
    i32 3, label %.loopexit
    i32 5, label %.loopexit
    i32 6, label %.loopexit
    i32 10, label %.loopexit
    i32 15, label %.loopexit
    i32 22, label %.loopexit
    i32 23, label %.loopexit
    i32 32, label %.loopexit
    i32 33, label %.loopexit
    i32 34, label %.loopexit
    i32 42, label %.loopexit
    i32 9, label %.loopexit
    i32 12, label %.loopexit
    i32 38, label %.loopexit
    i32 41, label %.loopexit
    i32 4, label %12
  ]

11:                                               ; preds = %4
  br label %.loopexit

12:                                               ; preds = %4
  %13 = getelementptr inbounds nuw i8, ptr %9, i64 40
  %14 = load ptr, ptr %13, align 8
  %15 = tail call i32 @g_slist_length(ptr noundef %14)
  %.not118.not119.not = icmp eq i32 %15, 0
  br i1 %.not118.not119.not, label %.loopexit, label %.lr.ph

.lr.ph:                                           ; preds = %12, %.critedge
  %.0106120 = phi i32 [ %57, %.critedge ], [ 0, %12 ]
  %16 = load ptr, ptr @_ZN15PacketListModel14sort_cap_file_E, align 8
  %17 = getelementptr inbounds nuw i8, ptr %16, i64 296
  %18 = load ptr, ptr %17, align 8
  %19 = getelementptr %struct.col_item_t, ptr %18, i64 %8, i32 5
  %20 = load ptr, ptr %19, align 8
  %21 = tail call ptr @g_slist_nth_data(ptr noundef %20, i32 noundef %.0106120)
  %22 = getelementptr inbounds nuw i8, ptr %21, i64 16
  %23 = load i32, ptr %22, align 8
  %24 = icmp eq i32 %23, 0
  br i1 %24, label %25, label %41

25:                                               ; preds = %.lr.ph
  %26 = getelementptr inbounds nuw i8, ptr %21, i64 8
  %27 = load ptr, ptr %26, align 8
  %28 = tail call i32 @dfilter_get_return_type(ptr noundef %27)
  %29 = and i32 %28, -2
  %30 = and i32 %28, -4
  %or.cond6 = icmp eq i32 %30, 12
  %31 = icmp eq i32 %30, 16
  %or.cond14 = or i1 %or.cond6, %31
  %32 = icmp eq i32 %28, 35
  %33 = add i32 %28, -3
  %34 = icmp ult i32 %33, 6
  %35 = or i1 %32, %34
  %or.cond28 = or i1 %or.cond14, %35
  %36 = add i32 %28, -9
  %37 = icmp ult i32 %36, 3
  %or.cond34 = or i1 %37, %or.cond28
  %38 = icmp eq i32 %29, 22
  %or.cond38 = or i1 %38, %or.cond34
  %39 = icmp eq i32 %28, 2
  %or.cond40 = or i1 %39, %or.cond38
  %40 = icmp eq i32 %28, 25
  %or.cond42 = or i1 %40, %or.cond40
  br label %.loopexit

41:                                               ; preds = %.lr.ph
  %42 = tail call ptr @proto_registrar_get_nth(i32 noundef %23)
  %.not = icmp eq ptr %42, null
  br i1 %.not, label %.loopexit, label %43

43:                                               ; preds = %41
  %44 = getelementptr inbounds nuw i8, ptr %42, i64 24
  %45 = load ptr, ptr %44, align 8
  %.not116 = icmp eq ptr %45, null
  br i1 %.not116, label %50, label %46

46:                                               ; preds = %43
  %47 = getelementptr inbounds nuw i8, ptr %42, i64 20
  %48 = load i32, ptr %47, align 4
  %49 = and i32 %48, 4096
  %.not117 = icmp eq i32 %49, 0
  br i1 %.not117, label %.loopexit, label %50

50:                                               ; preds = %46, %43
  %51 = getelementptr inbounds nuw i8, ptr %42, i64 16
  %52 = load i32, ptr %51, align 8
  switch i32 %52, label %.loopexit [
    i32 12, label %53
    i32 13, label %53
    i32 14, label %53
    i32 15, label %53
    i32 16, label %53
    i32 17, label %53
    i32 18, label %53
    i32 19, label %53
    i32 3, label %53
    i32 4, label %53
    i32 5, label %53
    i32 6, label %53
    i32 7, label %53
    i32 35, label %53
    i32 8, label %53
    i32 9, label %53
    i32 10, label %53
    i32 11, label %53
    i32 23, label %.critedge
    i32 22, label %.critedge
    i32 2, label %.critedge
    i32 25, label %.critedge
  ]

53:                                               ; preds = %50, %50, %50, %50, %50, %50, %50, %50, %50, %50, %50, %50, %50, %50, %50, %50, %50, %50
  %54 = getelementptr inbounds nuw i8, ptr %42, i64 20
  %55 = load i32, ptr %54, align 4
  %trunc = trunc i32 %55 to i8
  switch i8 %trunc, label %56 [
    i8 1, label %.critedge
    i8 3, label %.critedge
    i8 4, label %.critedge
  ]

56:                                               ; preds = %53
  switch i32 %52, label %.loopexit [
    i32 23, label %.critedge
    i32 22, label %.critedge
    i32 25, label %.critedge
    i32 35, label %.critedge
  ]

.critedge:                                        ; preds = %56, %50, %50, %50, %50, %56, %56, %56, %53, %53, %53
  %57 = add nuw i32 %.0106120, 1
  %exitcond.not = icmp eq i32 %57, %15
  br i1 %exitcond.not, label %.loopexit, label %.lr.ph, !llvm.loop !88

.loopexit:                                        ; preds = %50, %56, %46, %41, %.critedge, %12, %25, %4, %4, %4, %4, %4, %4, %4, %4, %4, %4, %4, %4, %4, %4, %4, %2, %11
  %.0 = phi i1 [ false, %11 ], [ false, %2 ], [ true, %4 ], [ true, %4 ], [ true, %4 ], [ true, %4 ], [ true, %4 ], [ true, %4 ], [ true, %4 ], [ true, %4 ], [ true, %4 ], [ true, %4 ], [ true, %4 ], [ true, %4 ], [ true, %4 ], [ true, %4 ], [ true, %4 ], [ %or.cond42, %25 ], [ true, %12 ], [ false, %50 ], [ false, %56 ], [ false, %46 ], [ false, %41 ], [ true, %.critedge ]
  ret i1 %.0
}